; Function Attrs: nounwind uwtable
define void @UI_free(ptr noundef %0) local_unnamed_addr #0 {
  %2 = icmp eq ptr %0, null
  br i1 %2, label %19, label %3

3:                                                ; preds = %1
  %4 = getelementptr inbounds nuw i8, ptr %0, i64 40
  %5 = load i32, ptr %4, align 8, !tbaa !15
  %6 = and i32 %5, 2
  %.not = icmp eq i32 %6, 0
  br i1 %.not, label %13, label %7

7:                                                ; preds = %3
  %8 = load ptr, ptr %0, align 8, !tbaa !14
  %9 = getelementptr inbounds nuw i8, ptr %8, i64 56
  %10 = load ptr, ptr %9, align 8, !tbaa !16
  %11 = getelementptr inbounds nuw i8, ptr %0, i64 16
  %12 = load ptr, ptr %11, align 8, !tbaa !19
  tail call void %10(ptr noundef nonnull %0, ptr noundef %12) #8
  br label %13

13:                                               ; preds = %7, %3
  %14 = getelementptr inbounds nuw i8, ptr %0, i64 8
  %15 = load ptr, ptr %14, align 8, !tbaa !20
  tail call void @OPENSSL_sk_pop_free(ptr noundef %15, ptr noundef nonnull @free_string) #8
  %16 = getelementptr inbounds nuw i8, ptr %0, i64 24
  tail call void @CRYPTO_free_ex_data(i32 noundef 11, ptr noundef nonnull %0, ptr noundef nonnull %16) #8
  %17 = getelementptr inbounds nuw i8, ptr %0, i64 48
  %18 = load ptr, ptr %17, align 8, !tbaa !3
  tail call void @CRYPTO_THREAD_lock_free(ptr noundef %18) #8
  tail call void @CRYPTO_free(ptr noundef nonnull %0, ptr noundef nonnull @.str, i32 noundef 81) #8
  br label %19

19:                                               ; preds = %1, %13
  ret void
}